target datalayout = "e-m:e-p270:32:32-p271:32:32-p272:64:64-i64:64-i128:128-f80:128-n8:16:32:64-S128"
target triple = "x86_64-pc-linux-gnu"

%struct.h5tools_str_t = type { ptr, i64, i64 }
%struct.__va_list_tag = type { i32, i32, ptr, ptr }

@.str = private unnamed_addr constant [3 x i8] c"%s\00", align 1

; Function Attrs: nounwind uwtable
define ptr @h5tools_str_reset(ptr noundef %0) #0 {
  %2 = alloca ptr, align 8
  store ptr %0, ptr %2, align 8, !tbaa !3
  %3 = load ptr, ptr %2, align 8, !tbaa !3
  %4 = getelementptr inbounds nuw %struct.h5tools_str_t, ptr %3, i32 0, i32 0
  %5 = load ptr, ptr %4, align 8, !tbaa !12
  %6 = icmp ne ptr %5, null
  br i1 %6, label %7, label %12

7:                                                ; preds = %1
  %8 = load ptr, ptr %2, align 8, !tbaa !3
  %9 = getelementptr inbounds nuw %struct.h5tools_str_t, ptr %8, i32 0, i32 2
  %10 = load i64, ptr %9, align 8, !tbaa !8
  %11 = icmp ule i64 %10, 0
  br i1 %11, label %12, label %21

12:                                               ; preds = %7, %1
  %13 = load ptr, ptr %2, align 8, !tbaa !3
  %14 = getelementptr inbounds nuw %struct.h5tools_str_t, ptr %13, i32 0, i32 2
  store i64 4096, ptr %14, align 8, !tbaa !8
  %15 = load ptr, ptr %2, align 8, !tbaa !3
  %16 = getelementptr inbounds nuw %struct.h5tools_str_t, ptr %15, i32 0, i32 2
  %17 = load i64, ptr %16, align 8, !tbaa !8
  %18 = call noalias ptr @malloc(i64 noundef %17) #15
  %19 = load ptr, ptr %2, align 8, !tbaa !3
  %20 = getelementptr inbounds nuw %struct.h5tools_str_t, ptr %19, i32 0, i32 0
  store ptr %18, ptr %20, align 8, !tbaa !12
  br label %21

21:                                               ; preds = %12, %7
  %22 = load ptr, ptr %2, align 8, !tbaa !3
  %23 = getelementptr inbounds nuw %struct.h5tools_str_t, ptr %22, i32 0, i32 0
  %24 = load ptr, ptr %23, align 8, !tbaa !12
  %25 = getelementptr inbounds i8, ptr %24, i64 0
  store i8 0, ptr %25, align 1, !tbaa !18
  %26 = load ptr, ptr %2, align 8, !tbaa !3
  %27 = getelementptr inbounds nuw %struct.h5tools_str_t, ptr %26, i32 0, i32 1
  store i64 0, ptr %27, align 8, !tbaa !13
  %28 = load ptr, ptr %2, align 8, !tbaa !3
  %29 = getelementptr inbounds nuw %struct.h5tools_str_t, ptr %28, i32 0, i32 0
  %30 = load ptr, ptr %29, align 8, !tbaa !12
  ret ptr %30
}

; Function Attrs: nounwind uwtable
define ptr @h5tools_str_append(ptr noundef %0, ptr noundef %1, ...) #0 {
  %3 = alloca ptr, align 8
  %4 = alloca ptr, align 8
  %5 = alloca ptr, align 8
  %6 = alloca [1 x %struct.__va_list_tag], align 16
  %7 = alloca i32, align 4
  %8 = alloca i32, align 4
  %9 = alloca i64, align 8
  %10 = alloca i64, align 8
  store ptr %0, ptr %4, align 8, !tbaa !3
  store ptr %1, ptr %5, align 8, !tbaa !14
  call void @llvm.lifetime.start.p0(i64 24, ptr %6) #12
  %11 = load ptr, ptr %4, align 8, !tbaa !3
  %12 = getelementptr inbounds nuw %struct.h5tools_str_t, ptr %11, i32 0, i32 0
  %13 = load ptr, ptr %12, align 8, !tbaa !12
  %14 = icmp ne ptr %13, null
  br i1 %14, label %15, label %20

15:                                               ; preds = %2
  %16 = load ptr, ptr %4, align 8, !tbaa !3
  %17 = getelementptr inbounds nuw %struct.h5tools_str_t, ptr %16, i32 0, i32 2
  %18 = load i64, ptr %17, align 8, !tbaa !8
  %19 = icmp ule i64 %18, 0
  br i1 %19, label %20, label %23

20:                                               ; preds = %15, %2
  %21 = load ptr, ptr %4, align 8, !tbaa !3
  %22 = call ptr @h5tools_str_reset(ptr noundef %21)
  br label %23

23:                                               ; preds = %20, %15
  %24 = load ptr, ptr %5, align 8, !tbaa !14
  %25 = call i64 @strlen(ptr noundef %24) #13
  %26 = icmp eq i64 %25, 0
  br i1 %26, label %27, label %31

27:                                               ; preds = %23
  %28 = load ptr, ptr %4, align 8, !tbaa !3
  %29 = getelementptr inbounds nuw %struct.h5tools_str_t, ptr %28, i32 0, i32 0
  %30 = load ptr, ptr %29, align 8, !tbaa !12
  store ptr %30, ptr %3, align 8
  store i32 1, ptr %7, align 4
  br label %122

31:                                               ; preds = %23
  br label %32

32:                                               ; preds = %117, %31
  br label %33

33:                                               ; preds = %32
  call void @llvm.lifetime.start.p0(i64 4, ptr %8) #12
  store i32 -1, ptr %8, align 4, !tbaa !15
  call void @llvm.lifetime.start.p0(i64 8, ptr %9) #12
  %34 = load ptr, ptr %4, align 8, !tbaa !3
  %35 = getelementptr inbounds nuw %struct.h5tools_str_t, ptr %34, i32 0, i32 2
  %36 = load i64, ptr %35, align 8, !tbaa !8
  %37 = load ptr, ptr %4, align 8, !tbaa !3
  %38 = getelementptr inbounds nuw %struct.h5tools_str_t, ptr %37, i32 0, i32 1
  %39 = load i64, ptr %38, align 8, !tbaa !13
  %40 = sub i64 %36, %39
  store i64 %40, ptr %9, align 8, !tbaa !17
  %41 = getelementptr inbounds [1 x %struct.__va_list_tag], ptr %6, i64 0, i64 0
  call void @llvm.va_start.p0(ptr %41)
  %42 = load ptr, ptr %4, align 8, !tbaa !3
  %43 = getelementptr inbounds nuw %struct.h5tools_str_t, ptr %42, i32 0, i32 0
  %44 = load ptr, ptr %43, align 8, !tbaa !12
  %45 = load ptr, ptr %4, align 8, !tbaa !3
  %46 = getelementptr inbounds nuw %struct.h5tools_str_t, ptr %45, i32 0, i32 1
  %47 = load i64, ptr %46, align 8, !tbaa !13
  %48 = getelementptr inbounds nuw i8, ptr %44, i64 %47
  %49 = load i64, ptr %9, align 8, !tbaa !17
  %50 = load ptr, ptr %5, align 8, !tbaa !14
  %51 = getelementptr inbounds [1 x %struct.__va_list_tag], ptr %6, i64 0, i64 0
  %52 = call i32 @vsnprintf(ptr noundef %48, i64 noundef %49, ptr noundef %50, ptr noundef %51) #12
  store i32 %52, ptr %8, align 4, !tbaa !15
  %53 = getelementptr inbounds [1 x %struct.__va_list_tag], ptr %6, i64 0, i64 0
  call void @llvm.va_end.p0(ptr %53)
  %54 = load i32, ptr %8, align 4, !tbaa !15
  %55 = icmp slt i32 %54, 0
  br i1 %55, label %56, label %57

56:                                               ; preds = %33
  store ptr null, ptr %3, align 8
  store i32 1, ptr %7, align 4
  br label %115

57:                                               ; preds = %33
  %58 = load i32, ptr %8, align 4, !tbaa !15
  %59 = sext i32 %58 to i64
  %60 = load i64, ptr %9, align 8, !tbaa !17
  %61 = icmp uge i64 %59, %60
  br i1 %61, label %69, label %62

62:                                               ; preds = %57
  %63 = load i32, ptr %8, align 4, !tbaa !15
  %64 = icmp eq i32 0, %63
  br i1 %64, label %65, label %107

65:                                               ; preds = %62
  %66 = load ptr, ptr %5, align 8, !tbaa !14
  %67 = call i32 @strcmp(ptr noundef %66, ptr noundef @.str) #13
  %68 = icmp ne i32 %67, 0
  br i1 %68, label %69, label %107

69:                                               ; preds = %65, %57
  call void @llvm.lifetime.start.p0(i64 8, ptr %10) #12
  %70 = load ptr, ptr %4, align 8, !tbaa !3
  %71 = getelementptr inbounds nuw %struct.h5tools_str_t, ptr %70, i32 0, i32 1
  %72 = load i64, ptr %71, align 8, !tbaa !13
  %73 = load i32, ptr %8, align 4, !tbaa !15
  %74 = sext i32 %73 to i64
  %75 = add i64 %72, %74
  %76 = add i64 %75, 1
  %77 = load ptr, ptr %4, align 8, !tbaa !3
  %78 = getelementptr inbounds nuw %struct.h5tools_str_t, ptr %77, i32 0, i32 2
  %79 = load i64, ptr %78, align 8, !tbaa !8
  %80 = mul i64 2, %79
  %81 = icmp ugt i64 %76, %80
  br i1 %81, label %82, label %90

82:                                               ; preds = %69
  %83 = load ptr, ptr %4, align 8, !tbaa !3
  %84 = getelementptr inbounds nuw %struct.h5tools_str_t, ptr %83, i32 0, i32 1
  %85 = load i64, ptr %84, align 8, !tbaa !13
  %86 = load i32, ptr %8, align 4, !tbaa !15
  %87 = sext i32 %86 to i64
  %88 = add i64 %85, %87
  %89 = add i64 %88, 1
  br label %95

90:                                               ; preds = %69
  %91 = load ptr, ptr %4, align 8, !tbaa !3
  %92 = getelementptr inbounds nuw %struct.h5tools_str_t, ptr %91, i32 0, i32 2
  %93 = load i64, ptr %92, align 8, !tbaa !8
  %94 = mul i64 2, %93
  br label %95

95:                                               ; preds = %90, %82
  %96 = phi i64 [ %89, %82 ], [ %94, %90 ]
  store i64 %96, ptr %10, align 8, !tbaa !17
  %97 = load ptr, ptr %4, align 8, !tbaa !3
  %98 = getelementptr inbounds nuw %struct.h5tools_str_t, ptr %97, i32 0, i32 0
  %99 = load ptr, ptr %98, align 8, !tbaa !12
  %100 = load i64, ptr %10, align 8, !tbaa !17
  %101 = call ptr @realloc(ptr noundef %99, i64 noundef %100) #14
  %102 = load ptr, ptr %4, align 8, !tbaa !3
  %103 = getelementptr inbounds nuw %struct.h5tools_str_t, ptr %102, i32 0, i32 0
  store ptr %101, ptr %103, align 8, !tbaa !12
  %104 = load i64, ptr %10, align 8, !tbaa !17
  %105 = load ptr, ptr %4, align 8, !tbaa !3
  %106 = getelementptr inbounds nuw %struct.h5tools_str_t, ptr %105, i32 0, i32 2
  store i64 %104, ptr %106, align 8, !tbaa !8
  call void @llvm.lifetime.end.p0(i64 8, ptr %10) #12
  br label %114

107:                                              ; preds = %65, %62
  %108 = load i32, ptr %8, align 4, !tbaa !15
  %109 = sext i32 %108 to i64
  %110 = load ptr, ptr %4, align 8, !tbaa !3
  %111 = getelementptr inbounds nuw %struct.h5tools_str_t, ptr %110, i32 0, i32 1
  %112 = load i64, ptr %111, align 8, !tbaa !13
  %113 = add i64 %112, %109
  store i64 %113, ptr %111, align 8, !tbaa !13
  store i32 3, ptr %7, align 4
  br label %115

114:                                              ; preds = %95
  store i32 0, ptr %7, align 4
  br label %115

115:                                              ; preds = %114, %107, %56
  call void @llvm.lifetime.end.p0(i64 8, ptr %9) #12
  call void @llvm.lifetime.end.p0(i64 4, ptr %8) #12
  %116 = load i32, ptr %7, align 4
  switch i32 %116, label %122 [
    i32 0, label %117
    i32 3, label %118
  ]

117:                                              ; preds = %115
  br label %32

118:                                              ; preds = %115
  %119 = load ptr, ptr %4, align 8, !tbaa !3
  %120 = getelementptr inbounds nuw %struct.h5tools_str_t, ptr %119, i32 0, i32 0
  %121 = load ptr, ptr %120, align 8, !tbaa !12
  store ptr %121, ptr %3, align 8
  store i32 1, ptr %7, align 4
  br label %122

122:                                              ; preds = %118, %115, %27
  call void @llvm.lifetime.end.p0(i64 24, ptr %6) #12
  %123 = load ptr, ptr %3, align 8
  ret ptr %123
}