; Function Attrs: nounwind uwtable
define ptr @h5tools_str_append(ptr noundef captures(none) %0, ptr noundef readonly captures(none) %1, ...) local_unnamed_addr #4 {
  %3 = alloca [1 x %struct.__va_list_tag], align 16
  call void @llvm.lifetime.start.p0(i64 24, ptr nonnull %3) #21
  %4 = load ptr, ptr %0, align 8, !tbaa !10
  %.not = icmp eq ptr %4, null
  br i1 %.not, label %h5tools_str_reset.exit, label %5

5:                                                ; preds = %2
  %6 = getelementptr inbounds nuw i8, ptr %0, i64 16
  %7 = load i64, ptr %6, align 8, !tbaa !3
  %8 = icmp eq i64 %7, 0
  br i1 %8, label %h5tools_str_reset.exit, label %12

h5tools_str_reset.exit:                           ; preds = %2, %5
  %9 = getelementptr inbounds nuw i8, ptr %0, i64 16
  store i64 4096, ptr %9, align 8, !tbaa !3
  %10 = tail call noalias dereferenceable_or_null(4096) ptr @malloc(i64 noundef 4096) #22
  store ptr %10, ptr %0, align 8, !tbaa !10
  store i8 0, ptr %10, align 1, !tbaa !12
  %11 = getelementptr inbounds nuw i8, ptr %0, i64 8
  store i64 0, ptr %11, align 8, !tbaa !11
  br label %12

12:                                               ; preds = %h5tools_str_reset.exit, %5
  %13 = phi ptr [ %10, %h5tools_str_reset.exit ], [ %4, %5 ]
  %14 = phi i64 [ 4096, %h5tools_str_reset.exit ], [ %7, %5 ]
  %char0 = load i8, ptr %1, align 1
  %15 = icmp eq i8 %char0, 0
  br i1 %15, label %.thread38, label %.preheader

.preheader:                                       ; preds = %12
  %16 = getelementptr inbounds nuw i8, ptr %0, i64 16
  %17 = getelementptr inbounds nuw i8, ptr %0, i64 8
  %18 = load i64, ptr %17, align 8, !tbaa !11
  %19 = sub i64 %14, %18
  call void @llvm.va_start.p0(ptr nonnull %3)
  %20 = load ptr, ptr %0, align 8, !tbaa !10
  %21 = load i64, ptr %17, align 8, !tbaa !11
  %22 = getelementptr inbounds nuw i8, ptr %20, i64 %21
  %23 = call i32 @vsnprintf(ptr noundef %22, i64 noundef %19, ptr noundef nonnull %1, ptr noundef nonnull %3) #21
  call void @llvm.va_end.p0(ptr nonnull %3)
  %24 = icmp slt i32 %23, 0
  br i1 %24, label %.thread38, label %.lr.ph

.lr.ph:                                           ; preds = %.preheader
  %25 = getelementptr inbounds nuw i8, ptr %1, i64 1
  %26 = getelementptr inbounds nuw i8, ptr %1, i64 2
  br label %27

27:                                               ; preds = %.lr.ph, %.tail.thread
  %28 = phi i32 [ %23, %.lr.ph ], [ %49, %.tail.thread ]
  %29 = phi i64 [ %19, %.lr.ph ], [ %45, %.tail.thread ]
  %30 = zext nneg i32 %28 to i64
  %.not36 = icmp ugt i64 %29, %30
  br i1 %.not36, label %31, label %.tail.thread

31:                                               ; preds = %27
  %32 = icmp eq i32 %28, 0
  br i1 %32, label %sub_0, label %51

sub_0:                                            ; preds = %31
  %33 = load i8, ptr %1, align 1
  %.not44 = icmp eq i8 %33, 37
  br i1 %.not44, label %sub_1, label %.tail.thread

sub_1:                                            ; preds = %sub_0
  %34 = load i8, ptr %25, align 1
  %.not45 = icmp eq i8 %34, 115
  br i1 %.not45, label %.tail, label %.tail.thread

.tail:                                            ; preds = %sub_1
  %35 = load i8, ptr %26, align 1
  %36 = icmp eq i8 %35, 0
  br i1 %36, label %51, label %.tail.thread

.tail.thread:                                     ; preds = %sub_1, %sub_0, %27, %.tail
  %37 = load i64, ptr %17, align 8, !tbaa !11
  %38 = add nuw nsw i64 %30, 1
  %39 = add i64 %38, %37
  %40 = load i64, ptr %16, align 8, !tbaa !3
  %41 = shl i64 %40, 1
  %. = call i64 @llvm.umax.i64(i64 %39, i64 %41)
  %42 = load ptr, ptr %0, align 8, !tbaa !10
  %43 = call ptr @realloc(ptr noundef %42, i64 noundef %.) #23
  store ptr %43, ptr %0, align 8, !tbaa !10
  store i64 %., ptr %16, align 8, !tbaa !3
  %44 = load i64, ptr %17, align 8, !tbaa !11
  %45 = sub i64 %., %44
  call void @llvm.va_start.p0(ptr nonnull %3)
  %46 = load ptr, ptr %0, align 8, !tbaa !10
  %47 = load i64, ptr %17, align 8, !tbaa !11
  %48 = getelementptr inbounds nuw i8, ptr %46, i64 %47
  %49 = call i32 @vsnprintf(ptr noundef %48, i64 noundef %45, ptr noundef nonnull %1, ptr noundef nonnull %3) #21
  call void @llvm.va_end.p0(ptr nonnull %3)
  %50 = icmp slt i32 %49, 0
  br i1 %50, label %.thread38, label %27

51:                                               ; preds = %31, %.tail
  %52 = load i64, ptr %17, align 8, !tbaa !11
  %53 = add i64 %52, %30
  store i64 %53, ptr %17, align 8, !tbaa !11
  %54 = load ptr, ptr %0, align 8, !tbaa !10
  br label %.thread38

.thread38:                                        ; preds = %.tail.thread, %12, %.preheader, %51
  %.0 = phi ptr [ %54, %51 ], [ null, %.preheader ], [ %13, %12 ], [ null, %.tail.thread ]
  call void @llvm.lifetime.end.p0(i64 24, ptr nonnull %3) #21
  ret ptr %.0
}